target datalayout = "e-m:e-p270:32:32-p271:32:32-p272:64:64-i64:64-i128:128-f80:128-n8:16:32:64-S128"
target triple = "x86_64-pc-linux-gnu"

%struct.expert_field = type { i32, i32 }

@hf_uftp_destlist = internal global i32 0, align 4
@hf_uftp_keyinfo = internal global i32 0, align 4
@hf_uftp_keyinfo_func = internal global i32 0, align 4
@hf_uftp_keyinfo_hlen = internal global i32 0, align 4
@hf_uftp_keyinfo_siglen = internal global i32 0, align 4
@hf_uftp_keyinfo_ivctr = internal global i32 0, align 4
@hf_uftp_keyinfo_sig = internal global i32 0, align 4
@hf_uftp_keyinfo_destkey = internal global i32 0, align 4
@hf_uftp_keyinfo_destid = internal global i32 0, align 4
@hf_uftp_keyinfo_groupmaster = internal global i32 0, align 4
@ett_uftp_keyinfo = internal global i32 0, align 4
@ett_uftp_keyinfo_destkey = internal global i32 0, align 4
@ett_uftp_destlist = internal global i32 0, align 4
@ei_uftp_length_invalid = internal global %struct.expert_field zeroinitializer, align 4
@.str.416 = private unnamed_addr constant [19 x i8] c"Invalid length: %d\00", align 1
@.str.418 = private unnamed_addr constant [14 x i8] c"%d bytes (%d)\00", align 1
@.str.423 = private unnamed_addr constant [49 x i8] c"Invalid length, len = %d, hlen = %d, siglen = %d\00", align 1

; Function Attrs: null_pointer_is_valid sspstrong uwtable
define internal void @dissect_uftp_keyinfo(ptr noundef %0, ptr noundef %1, ptr noundef %2) #0 {
  %4 = alloca ptr, align 8
  %5 = alloca ptr, align 8
  %6 = alloca ptr, align 8
  %7 = alloca ptr, align 8
  %8 = alloca ptr, align 8
  %9 = alloca ptr, align 8
  %10 = alloca ptr, align 8
  %11 = alloca ptr, align 8
  %12 = alloca ptr, align 8
  %13 = alloca i32, align 4
  %14 = alloca i32, align 4
  %15 = alloca i32, align 4
  %16 = alloca i8, align 1
  %17 = alloca i8, align 1
  %18 = alloca i32, align 4
  store ptr %0, ptr %4, align 8
  store ptr %1, ptr %5, align 8
  store ptr %2, ptr %6, align 8
  call void @llvm.lifetime.start.p0(i64 8, ptr %7) #6
  store ptr null, ptr %7, align 8
  call void @llvm.lifetime.start.p0(i64 8, ptr %8) #6
  store ptr null, ptr %8, align 8
  call void @llvm.lifetime.start.p0(i64 8, ptr %9) #6
  store ptr null, ptr %9, align 8
  call void @llvm.lifetime.start.p0(i64 8, ptr %10) #6
  store ptr null, ptr %10, align 8
  call void @llvm.lifetime.start.p0(i64 8, ptr %11) #6
  store ptr null, ptr %11, align 8
  call void @llvm.lifetime.start.p0(i64 8, ptr %12) #6
  store ptr null, ptr %12, align 8
  call void @llvm.lifetime.start.p0(i64 4, ptr %13) #6
  store i32 0, ptr %13, align 4
  call void @llvm.lifetime.start.p0(i64 4, ptr %14) #6
  call void @llvm.lifetime.start.p0(i64 4, ptr %15) #6
  call void @llvm.lifetime.start.p0(i64 1, ptr %16) #6
  call void @llvm.lifetime.start.p0(i64 1, ptr %17) #6
  %19 = load ptr, ptr %4, align 8
  %20 = call i32 @tvb_reported_length(ptr noundef %19)
  %21 = icmp ult i32 %20, 12
  br i1 %21, label %22, label %30

22:                                               ; preds = %3
  %23 = load ptr, ptr %6, align 8
  %24 = load ptr, ptr %5, align 8
  %25 = load ptr, ptr %4, align 8
  %26 = load i32, ptr %13, align 4
  %27 = load ptr, ptr %4, align 8
  %28 = call i32 @tvb_reported_length(ptr noundef %27)
  %29 = call ptr (ptr, ptr, ptr, ptr, i32, i32, ptr, ...) @proto_tree_add_expert_format(ptr noundef %23, ptr noundef %24, ptr noundef @ei_uftp_length_invalid, ptr noundef %25, i32 noundef %26, i32 noundef -1, ptr noundef @.str.416, i32 noundef %28)
  store i32 1, ptr %18, align 4
  br label %160

30:                                               ; preds = %3
  %31 = load ptr, ptr %4, align 8
  %32 = call zeroext i8 @tvb_get_uint8(ptr noundef %31, i32 noundef 1)
  %33 = zext i8 %32 to i32
  %34 = mul i32 %33, 4
  store i32 %34, ptr %14, align 4
  %35 = load ptr, ptr %4, align 8
  %36 = call zeroext i16 @tvb_get_ntohs(ptr noundef %35, i32 noundef 2)
  %37 = zext i16 %36 to i32
  store i32 %37, ptr %15, align 4
  %38 = load ptr, ptr %4, align 8
  %39 = call i32 @tvb_reported_length(ptr noundef %38)
  %40 = load i32, ptr %14, align 4
  %41 = icmp slt i32 %39, %40
  br i1 %41, label %47, label %42

42:                                               ; preds = %30
  %43 = load i32, ptr %14, align 4
  %44 = load i32, ptr %15, align 4
  %45 = add i32 12, %44
  %46 = icmp slt i32 %43, %45
  br i1 %46, label %47, label %57

47:                                               ; preds = %42, %30
  %48 = load ptr, ptr %6, align 8
  %49 = load ptr, ptr %5, align 8
  %50 = load ptr, ptr %4, align 8
  %51 = load i32, ptr %13, align 4
  %52 = load ptr, ptr %4, align 8
  %53 = call i32 @tvb_reported_length(ptr noundef %52)
  %54 = load i32, ptr %14, align 4
  %55 = load i32, ptr %15, align 4
  %56 = call ptr (ptr, ptr, ptr, ptr, i32, i32, ptr, ...) @proto_tree_add_expert_format(ptr noundef %48, ptr noundef %49, ptr noundef @ei_uftp_length_invalid, ptr noundef %50, i32 noundef %51, i32 noundef -1, ptr noundef @.str.423, i32 noundef %53, i32 noundef %54, i32 noundef %55)
  store i32 1, ptr %18, align 4
  br label %160

57:                                               ; preds = %42
  %58 = load ptr, ptr %6, align 8
  %59 = load i32, ptr @hf_uftp_keyinfo, align 4
  %60 = load ptr, ptr %4, align 8
  %61 = load i32, ptr %13, align 4
  %62 = call ptr @proto_tree_add_item(ptr noundef %58, i32 noundef %59, ptr noundef %60, i32 noundef %61, i32 noundef -1, i32 noundef 0)
  store ptr %62, ptr %7, align 8
  %63 = load ptr, ptr %7, align 8
  %64 = load i32, ptr @ett_uftp_keyinfo, align 4
  %65 = call ptr @proto_item_add_subtree(ptr noundef %63, i32 noundef %64)
  store ptr %65, ptr %10, align 8
  %66 = load ptr, ptr %10, align 8
  %67 = load i32, ptr @hf_uftp_keyinfo_func, align 4
  %68 = load ptr, ptr %4, align 8
  %69 = load i32, ptr %13, align 4
  %70 = call ptr @proto_tree_add_item(ptr noundef %66, i32 noundef %67, ptr noundef %68, i32 noundef %69, i32 noundef 1, i32 noundef 0)
  %71 = load i32, ptr %13, align 4
  %72 = add i32 %71, 1
  store i32 %72, ptr %13, align 4
  %73 = load ptr, ptr %10, align 8
  %74 = load i32, ptr @hf_uftp_keyinfo_hlen, align 4
  %75 = load ptr, ptr %4, align 8
  %76 = load i32, ptr %13, align 4
  %77 = load i32, ptr %14, align 4
  %78 = load i32, ptr %14, align 4
  %79 = load i32, ptr %14, align 4
  %80 = sdiv i32 %79, 4
  %81 = call ptr (ptr, i32, ptr, i32, i32, i32, ptr, ...) @proto_tree_add_uint_format_value(ptr noundef %73, i32 noundef %74, ptr noundef %75, i32 noundef %76, i32 noundef 1, i32 noundef %77, ptr noundef @.str.418, i32 noundef %78, i32 noundef %80)
  %82 = load i32, ptr %13, align 4
  %83 = add i32 %82, 1
  store i32 %83, ptr %13, align 4
  %84 = load ptr, ptr %10, align 8
  %85 = load i32, ptr @hf_uftp_keyinfo_siglen, align 4
  %86 = load ptr, ptr %4, align 8
  %87 = load i32, ptr %13, align 4
  %88 = call ptr @proto_tree_add_item(ptr noundef %84, i32 noundef %85, ptr noundef %86, i32 noundef %87, i32 noundef 2, i32 noundef 0)
  %89 = load i32, ptr %13, align 4
  %90 = add i32 %89, 2
  store i32 %90, ptr %13, align 4
  %91 = load ptr, ptr %10, align 8
  %92 = load i32, ptr @hf_uftp_keyinfo_ivctr, align 4
  %93 = load ptr, ptr %4, align 8
  %94 = load i32, ptr %13, align 4
  %95 = call ptr @proto_tree_add_item(ptr noundef %91, i32 noundef %92, ptr noundef %93, i32 noundef %94, i32 noundef 8, i32 noundef 0)
  %96 = load i32, ptr %13, align 4
  %97 = add i32 %96, 8
  store i32 %97, ptr %13, align 4
  %98 = load ptr, ptr %10, align 8
  %99 = load i32, ptr @hf_uftp_keyinfo_sig, align 4
  %100 = load ptr, ptr %4, align 8
  %101 = load i32, ptr %13, align 4
  %102 = load i32, ptr %15, align 4
  %103 = call ptr @proto_tree_add_item(ptr noundef %98, i32 noundef %99, ptr noundef %100, i32 noundef %101, i32 noundef %102, i32 noundef 0)
  %104 = load ptr, ptr %4, align 8
  %105 = call i32 @tvb_reported_length(ptr noundef %104)
  %106 = load i32, ptr %14, align 4
  %107 = sub i32 %105, %106
  %108 = udiv i32 %107, 52
  %109 = trunc i32 %108 to i8
  store i8 %109, ptr %16, align 1
  %110 = load i32, ptr %14, align 4
  store i32 %110, ptr %13, align 4
  %111 = load i8, ptr %16, align 1
  %112 = zext i8 %111 to i32
  %113 = icmp sgt i32 %112, 0
  br i1 %113, label %114, label %126

114:                                              ; preds = %57
  %115 = load ptr, ptr %10, align 8
  %116 = load i32, ptr @hf_uftp_destlist, align 4
  %117 = load ptr, ptr %4, align 8
  %118 = load i32, ptr %13, align 4
  %119 = load i8, ptr %16, align 1
  %120 = zext i8 %119 to i32
  %121 = mul i32 %120, 52
  %122 = call ptr @proto_tree_add_item(ptr noundef %115, i32 noundef %116, ptr noundef %117, i32 noundef %118, i32 noundef %121, i32 noundef 0)
  store ptr %122, ptr %8, align 8
  %123 = load ptr, ptr %8, align 8
  %124 = load i32, ptr @ett_uftp_destlist, align 4
  %125 = call ptr @proto_item_add_subtree(ptr noundef %123, i32 noundef %124)
  store ptr %125, ptr %11, align 8
  br label %126

126:                                              ; preds = %114, %57
  store i8 0, ptr %17, align 1
  br label %127

127:                                              ; preds = %156, %126
  %128 = load i8, ptr %17, align 1
  %129 = zext i8 %128 to i32
  %130 = load i8, ptr %16, align 1
  %131 = zext i8 %130 to i32
  %132 = icmp slt i32 %129, %131
  br i1 %132, label %133, label %159

133:                                              ; preds = %127
  %134 = load ptr, ptr %11, align 8
  %135 = load i32, ptr @hf_uftp_keyinfo_destkey, align 4
  %136 = load ptr, ptr %4, align 8
  %137 = load i32, ptr %13, align 4
  %138 = call ptr @proto_tree_add_item(ptr noundef %134, i32 noundef %135, ptr noundef %136, i32 noundef %137, i32 noundef 52, i32 noundef 0)
  store ptr %138, ptr %9, align 8
  %139 = load ptr, ptr %9, align 8
  %140 = load i32, ptr @ett_uftp_keyinfo_destkey, align 4
  %141 = call ptr @proto_item_add_subtree(ptr noundef %139, i32 noundef %140)
  store ptr %141, ptr %12, align 8
  %142 = load ptr, ptr %12, align 8
  %143 = load i32, ptr @hf_uftp_keyinfo_destid, align 4
  %144 = load ptr, ptr %4, align 8
  %145 = load i32, ptr %13, align 4
  %146 = call ptr @proto_tree_add_item(ptr noundef %142, i32 noundef %143, ptr noundef %144, i32 noundef %145, i32 noundef 4, i32 noundef 0)
  %147 = load i32, ptr %13, align 4
  %148 = add i32 %147, 4
  store i32 %148, ptr %13, align 4
  %149 = load ptr, ptr %12, align 8
  %150 = load i32, ptr @hf_uftp_keyinfo_groupmaster, align 4
  %151 = load ptr, ptr %4, align 8
  %152 = load i32, ptr %13, align 4
  %153 = call ptr @proto_tree_add_item(ptr noundef %149, i32 noundef %150, ptr noundef %151, i32 noundef %152, i32 noundef 48, i32 noundef 0)
  %154 = load i32, ptr %13, align 4
  %155 = add i32 %154, 48
  store i32 %155, ptr %13, align 4
  br label %156

156:                                              ; preds = %133
  %157 = load i8, ptr %17, align 1
  %158 = add i8 %157, 1
  store i8 %158, ptr %17, align 1
  br label %127, !llvm.loop !12

159:                                              ; preds = %127
  store i32 0, ptr %18, align 4
  br label %160

160:                                              ; preds = %159, %47, %22
  call void @llvm.lifetime.end.p0(i64 1, ptr %17) #6
  call void @llvm.lifetime.end.p0(i64 1, ptr %16) #6
  call void @llvm.lifetime.end.p0(i64 4, ptr %15) #6
  call void @llvm.lifetime.end.p0(i64 4, ptr %14) #6
  call void @llvm.lifetime.end.p0(i64 4, ptr %13) #6
  call void @llvm.lifetime.end.p0(i64 8, ptr %12) #6
  call void @llvm.lifetime.end.p0(i64 8, ptr %11) #6
  call void @llvm.lifetime.end.p0(i64 8, ptr %10) #6
  call void @llvm.lifetime.end.p0(i64 8, ptr %9) #6
  call void @llvm.lifetime.end.p0(i64 8, ptr %8) #6
  call void @llvm.lifetime.end.p0(i64 8, ptr %7) #6
  %161 = load i32, ptr %18, align 4
  switch i32 %161, label %163 [
    i32 0, label %162
    i32 1, label %162
  ]

162:                                              ; preds = %160, %160
  ret void

163:                                              ; preds = %160
  unreachable
}