; Function Attrs: null_pointer_is_valid sspstrong uwtable
define internal fastcc void @dissect_uftp_keyinfo(ptr noundef %0, ptr noundef %1, ptr noundef %2) unnamed_addr #0 {
  %4 = tail call i32 @tvb_reported_length(ptr noundef %0)
  %5 = icmp ult i32 %4, 12
  br i1 %5, label %6, label %9

6:                                                ; preds = %3
  %7 = tail call i32 @tvb_reported_length(ptr noundef %0)
  %8 = tail call ptr (ptr, ptr, ptr, ptr, i32, i32, ptr, ...) @proto_tree_add_expert_format(ptr noundef %2, ptr noundef %1, ptr noundef nonnull @ei_uftp_length_invalid, ptr noundef %0, i32 noundef 0, i32 noundef -1, ptr noundef nonnull @.str.416, i32 noundef %7)
  br label %.loopexit

9:                                                ; preds = %3
  %10 = tail call zeroext i8 @tvb_get_uint8(ptr noundef %0, i32 noundef 1)
  %11 = zext i8 %10 to i32
  %12 = shl nuw nsw i32 %11, 2
  %13 = tail call zeroext i16 @tvb_get_ntohs(ptr noundef %0, i32 noundef 2)
  %14 = zext i16 %13 to i32
  %15 = tail call i32 @tvb_reported_length(ptr noundef %0)
  %16 = icmp slt i32 %15, %12
  %17 = add nuw nsw i32 %14, 12
  %18 = icmp samesign ult i32 %12, %17
  %or.cond = select i1 %16, i1 true, i1 %18
  br i1 %or.cond, label %19, label %22

19:                                               ; preds = %9
  %20 = tail call i32 @tvb_reported_length(ptr noundef %0)
  %21 = tail call ptr (ptr, ptr, ptr, ptr, i32, i32, ptr, ...) @proto_tree_add_expert_format(ptr noundef %2, ptr noundef %1, ptr noundef nonnull @ei_uftp_length_invalid, ptr noundef %0, i32 noundef 0, i32 noundef -1, ptr noundef nonnull @.str.423, i32 noundef %20, i32 noundef %12, i32 noundef %14)
  br label %.loopexit

22:                                               ; preds = %9
  %23 = load i32, ptr @hf_uftp_keyinfo, align 4
  %24 = tail call ptr @proto_tree_add_item(ptr noundef %2, i32 noundef %23, ptr noundef %0, i32 noundef 0, i32 noundef -1, i32 noundef 0)
  %25 = load i32, ptr @ett_uftp_keyinfo, align 4
  %26 = tail call ptr @proto_item_add_subtree(ptr noundef %24, i32 noundef %25)
  %27 = load i32, ptr @hf_uftp_keyinfo_func, align 4
  %28 = tail call ptr @proto_tree_add_item(ptr noundef %26, i32 noundef %27, ptr noundef %0, i32 noundef 0, i32 noundef 1, i32 noundef 0)
  %29 = load i32, ptr @hf_uftp_keyinfo_hlen, align 4
  %30 = tail call ptr (ptr, i32, ptr, i32, i32, i32, ptr, ...) @proto_tree_add_uint_format_value(ptr noundef %26, i32 noundef %29, ptr noundef %0, i32 noundef 1, i32 noundef 1, i32 noundef %12, ptr noundef nonnull @.str.418, i32 noundef %12, i32 noundef %11)
  %31 = load i32, ptr @hf_uftp_keyinfo_siglen, align 4
  %32 = tail call ptr @proto_tree_add_item(ptr noundef %26, i32 noundef %31, ptr noundef %0, i32 noundef 2, i32 noundef 2, i32 noundef 0)
  %33 = load i32, ptr @hf_uftp_keyinfo_ivctr, align 4
  %34 = tail call ptr @proto_tree_add_item(ptr noundef %26, i32 noundef %33, ptr noundef %0, i32 noundef 4, i32 noundef 8, i32 noundef 0)
  %35 = load i32, ptr @hf_uftp_keyinfo_sig, align 4
  %36 = tail call ptr @proto_tree_add_item(ptr noundef %26, i32 noundef %35, ptr noundef %0, i32 noundef 12, i32 noundef %14, i32 noundef 0)
  %37 = tail call i32 @tvb_reported_length(ptr noundef %0)
  %38 = sub i32 %37, %12
  %39 = udiv i32 %38, 52
  %40 = and i32 %39, 255
  %.not = icmp eq i32 %40, 0
  br i1 %.not, label %.loopexit, label %.lr.ph.preheader

.lr.ph.preheader:                                 ; preds = %22
  %41 = load i32, ptr @hf_uftp_destlist, align 4
  %42 = mul nuw nsw i32 %40, 52
  %43 = tail call ptr @proto_tree_add_item(ptr noundef %26, i32 noundef %41, ptr noundef %0, i32 noundef %12, i32 noundef %42, i32 noundef 0)
  %44 = load i32, ptr @ett_uftp_destlist, align 4
  %45 = tail call ptr @proto_item_add_subtree(ptr noundef %43, i32 noundef %44)
  br label %.lr.ph

.lr.ph:                                           ; preds = %.lr.ph.preheader, %.lr.ph
  %indvars.iv = phi i32 [ 0, %.lr.ph.preheader ], [ %indvars.iv.next, %.lr.ph ]
  %.06974 = phi i32 [ %12, %.lr.ph.preheader ], [ %55, %.lr.ph ]
  %46 = load i32, ptr @hf_uftp_keyinfo_destkey, align 4
  %47 = tail call ptr @proto_tree_add_item(ptr noundef %45, i32 noundef %46, ptr noundef %0, i32 noundef %.06974, i32 noundef 52, i32 noundef 0)
  %48 = load i32, ptr @ett_uftp_keyinfo_destkey, align 4
  %49 = tail call ptr @proto_item_add_subtree(ptr noundef %47, i32 noundef %48)
  %50 = load i32, ptr @hf_uftp_keyinfo_destid, align 4
  %51 = tail call ptr @proto_tree_add_item(ptr noundef %49, i32 noundef %50, ptr noundef %0, i32 noundef %.06974, i32 noundef 4, i32 noundef 0)
  %52 = add nuw nsw i32 %.06974, 4
  %53 = load i32, ptr @hf_uftp_keyinfo_groupmaster, align 4
  %54 = tail call ptr @proto_tree_add_item(ptr noundef %49, i32 noundef %53, ptr noundef %0, i32 noundef %52, i32 noundef 48, i32 noundef 0)
  %55 = add nuw nsw i32 %.06974, 52
  %indvars.iv.next = add nuw nsw i32 %indvars.iv, 1
  %exitcond.not = icmp eq i32 %indvars.iv.next, %40
  br i1 %exitcond.not, label %.loopexit, label %.lr.ph, !llvm.loop !11

.loopexit:                                        ; preds = %.lr.ph, %22, %19, %6
  ret void
}